target datalayout = "e-m:e-p270:32:32-p271:32:32-p272:64:64-i64:64-i128:128-f80:128-n8:16:32:64-S128"
target triple = "x86_64-pc-linux-gnu"

%struct.archive_write_filter = type { i64, ptr, ptr, ptr, ptr, ptr, ptr, ptr, ptr, ptr, ptr, i32, i32, i32, i32 }
%struct.private_data = type { i32, i32, i32, i32, i32, i64, i64, i64, i64, i64, i64, i64, i64, ptr, %struct.ZSTD_outBuffer_s }
%struct.ZSTD_outBuffer_s = type { ptr, i64, i64 }
%struct.ZSTD_inBuffer_s = type { ptr, i64, i64 }

@.str.16 = private unnamed_addr constant [28 x i8] c"Zstd compression failed: %s\00", align 1

; Function Attrs: nounwind uwtable
define internal i32 @drive_compressor(ptr noundef %0, ptr noundef %1, i32 noundef %2, ptr noundef %3, i64 noundef %4) #0 {
  %6 = alloca i32, align 4
  %7 = alloca ptr, align 8
  %8 = alloca ptr, align 8
  %9 = alloca i32, align 4
  %10 = alloca ptr, align 8
  %11 = alloca i64, align 8
  %12 = alloca %struct.ZSTD_inBuffer_s, align 8
  %13 = alloca i64, align 8
  %14 = alloca i64, align 8
  %15 = alloca i64, align 8
  %16 = alloca i32, align 4
  %17 = alloca i32, align 4
  store ptr %0, ptr %7, align 8, !tbaa !11
  store ptr %1, ptr %8, align 8, !tbaa !15
  store i32 %2, ptr %9, align 4, !tbaa !13
  store ptr %3, ptr %10, align 8, !tbaa !62
  store i64 %4, ptr %11, align 8, !tbaa !43
  call void @llvm.lifetime.start.p0(i64 24, ptr %12) #8
  %18 = getelementptr inbounds nuw %struct.ZSTD_inBuffer_s, ptr %12, i32 0, i32 0
  %19 = load ptr, ptr %10, align 8, !tbaa !62
  store ptr %19, ptr %18, align 8, !tbaa !63
  %20 = getelementptr inbounds nuw %struct.ZSTD_inBuffer_s, ptr %12, i32 0, i32 1
  %21 = load i64, ptr %11, align 8, !tbaa !43
  store i64 %21, ptr %20, align 8, !tbaa !65
  %22 = getelementptr inbounds nuw %struct.ZSTD_inBuffer_s, ptr %12, i32 0, i32 2
  store i64 0, ptr %22, align 8, !tbaa !66
  call void @llvm.lifetime.start.p0(i64 8, ptr %13) #8
  call void @llvm.lifetime.start.p0(i64 8, ptr %14) #8
  call void @llvm.lifetime.start.p0(i64 8, ptr %15) #8
  store i64 0, ptr %15, align 8, !tbaa !43
  call void @llvm.lifetime.start.p0(i64 4, ptr %16) #8
  br label %23

23:                                               ; preds = %175, %5
  %24 = getelementptr inbounds nuw %struct.ZSTD_inBuffer_s, ptr %12, i32 0, i32 2
  %25 = load i64, ptr %24, align 8, !tbaa !66
  store i64 %25, ptr %13, align 8, !tbaa !43
  %26 = load ptr, ptr %8, align 8, !tbaa !15
  %27 = getelementptr inbounds nuw %struct.private_data, ptr %26, i32 0, i32 14
  %28 = getelementptr inbounds nuw %struct.ZSTD_outBuffer_s, ptr %27, i32 0, i32 2
  %29 = load i64, ptr %28, align 8, !tbaa !51
  store i64 %29, ptr %14, align 8, !tbaa !43
  %30 = load ptr, ptr %8, align 8, !tbaa !15
  %31 = getelementptr inbounds nuw %struct.private_data, ptr %30, i32 0, i32 3
  %32 = load i32, ptr %31, align 4, !tbaa !58
  switch i32 %32, label %85 [
    i32 0, label %33
    i32 1, label %52
    i32 2, label %70
  ]

33:                                               ; preds = %23
  %34 = getelementptr inbounds nuw %struct.ZSTD_inBuffer_s, ptr %12, i32 0, i32 2
  %35 = load i64, ptr %34, align 8, !tbaa !66
  %36 = getelementptr inbounds nuw %struct.ZSTD_inBuffer_s, ptr %12, i32 0, i32 1
  %37 = load i64, ptr %36, align 8, !tbaa !65
  %38 = icmp eq i64 %35, %37
  br i1 %38, label %39, label %40

39:                                               ; preds = %33
  store i32 0, ptr %6, align 4
  store i32 1, ptr %17, align 4
  br label %183

40:                                               ; preds = %33
  %41 = load ptr, ptr %8, align 8, !tbaa !15
  %42 = getelementptr inbounds nuw %struct.private_data, ptr %41, i32 0, i32 13
  %43 = load ptr, ptr %42, align 8, !tbaa !41
  %44 = load ptr, ptr %8, align 8, !tbaa !15
  %45 = getelementptr inbounds nuw %struct.private_data, ptr %44, i32 0, i32 14
  %46 = call i64 @ZSTD_compressStream(ptr noundef %43, ptr noundef %45, ptr noundef %12)
  store i64 %46, ptr %15, align 8, !tbaa !43
  %47 = load i64, ptr %15, align 8, !tbaa !43
  %48 = call i32 @ZSTD_isError(i64 noundef %47)
  %49 = icmp ne i32 %48, 0
  br i1 %49, label %50, label %51

50:                                               ; preds = %40
  br label %176

51:                                               ; preds = %40
  br label %85

52:                                               ; preds = %23
  %53 = load ptr, ptr %8, align 8, !tbaa !15
  %54 = getelementptr inbounds nuw %struct.private_data, ptr %53, i32 0, i32 13
  %55 = load ptr, ptr %54, align 8, !tbaa !41
  %56 = load ptr, ptr %8, align 8, !tbaa !15
  %57 = getelementptr inbounds nuw %struct.private_data, ptr %56, i32 0, i32 14
  %58 = call i64 @ZSTD_endStream(ptr noundef %55, ptr noundef %57)
  store i64 %58, ptr %15, align 8, !tbaa !43
  %59 = load i64, ptr %15, align 8, !tbaa !43
  %60 = call i32 @ZSTD_isError(i64 noundef %59)
  %61 = icmp ne i32 %60, 0
  br i1 %61, label %62, label %63

62:                                               ; preds = %52
  br label %176

63:                                               ; preds = %52
  %64 = load i64, ptr %15, align 8, !tbaa !43
  %65 = icmp eq i64 %64, 0
  br i1 %65, label %66, label %69

66:                                               ; preds = %63
  %67 = load ptr, ptr %8, align 8, !tbaa !15
  %68 = getelementptr inbounds nuw %struct.private_data, ptr %67, i32 0, i32 3
  store i32 2, ptr %68, align 4, !tbaa !58
  br label %69

69:                                               ; preds = %66, %63
  br label %85

70:                                               ; preds = %23
  %71 = load ptr, ptr %8, align 8, !tbaa !15
  %72 = getelementptr inbounds nuw %struct.private_data, ptr %71, i32 0, i32 13
  %73 = load ptr, ptr %72, align 8, !tbaa !41
  %74 = call i64 @ZSTD_CCtx_reset(ptr noundef %73, i32 noundef 1)
  %75 = load ptr, ptr %8, align 8, !tbaa !15
  %76 = getelementptr inbounds nuw %struct.private_data, ptr %75, i32 0, i32 9
  %77 = load i64, ptr %76, align 8, !tbaa !67
  %78 = add i64 %77, 1
  store i64 %78, ptr %76, align 8, !tbaa !67
  %79 = load ptr, ptr %8, align 8, !tbaa !15
  %80 = getelementptr inbounds nuw %struct.private_data, ptr %79, i32 0, i32 10
  store i64 0, ptr %80, align 8, !tbaa !39
  %81 = load ptr, ptr %8, align 8, !tbaa !15
  %82 = getelementptr inbounds nuw %struct.private_data, ptr %81, i32 0, i32 11
  store i64 0, ptr %82, align 8, !tbaa !40
  %83 = load ptr, ptr %8, align 8, !tbaa !15
  %84 = getelementptr inbounds nuw %struct.private_data, ptr %83, i32 0, i32 3
  store i32 0, ptr %84, align 4, !tbaa !58
  br label %85

85:                                               ; preds = %23, %70, %69, %51
  %86 = getelementptr inbounds nuw %struct.ZSTD_inBuffer_s, ptr %12, i32 0, i32 2
  %87 = load i64, ptr %86, align 8, !tbaa !66
  %88 = load i64, ptr %13, align 8, !tbaa !43
  %89 = sub i64 %87, %88
  %90 = load ptr, ptr %8, align 8, !tbaa !15
  %91 = getelementptr inbounds nuw %struct.private_data, ptr %90, i32 0, i32 12
  %92 = load i64, ptr %91, align 8, !tbaa !68
  %93 = add i64 %92, %89
  store i64 %93, ptr %91, align 8, !tbaa !68
  %94 = getelementptr inbounds nuw %struct.ZSTD_inBuffer_s, ptr %12, i32 0, i32 2
  %95 = load i64, ptr %94, align 8, !tbaa !66
  %96 = load i64, ptr %13, align 8, !tbaa !43
  %97 = sub i64 %95, %96
  %98 = load ptr, ptr %8, align 8, !tbaa !15
  %99 = getelementptr inbounds nuw %struct.private_data, ptr %98, i32 0, i32 10
  %100 = load i64, ptr %99, align 8, !tbaa !39
  %101 = add i64 %100, %97
  store i64 %101, ptr %99, align 8, !tbaa !39
  %102 = load ptr, ptr %8, align 8, !tbaa !15
  %103 = getelementptr inbounds nuw %struct.private_data, ptr %102, i32 0, i32 14
  %104 = getelementptr inbounds nuw %struct.ZSTD_outBuffer_s, ptr %103, i32 0, i32 2
  %105 = load i64, ptr %104, align 8, !tbaa !51
  %106 = load i64, ptr %14, align 8, !tbaa !43
  %107 = sub i64 %105, %106
  %108 = load ptr, ptr %8, align 8, !tbaa !15
  %109 = getelementptr inbounds nuw %struct.private_data, ptr %108, i32 0, i32 11
  %110 = load i64, ptr %109, align 8, !tbaa !40
  %111 = add i64 %110, %107
  store i64 %111, ptr %109, align 8, !tbaa !40
  %112 = load ptr, ptr %8, align 8, !tbaa !15
  %113 = getelementptr inbounds nuw %struct.private_data, ptr %112, i32 0, i32 3
  %114 = load i32, ptr %113, align 4, !tbaa !58
  %115 = icmp eq i32 %114, 0
  br i1 %115, label %116, label %136

116:                                              ; preds = %85
  %117 = load ptr, ptr %8, align 8, !tbaa !15
  %118 = getelementptr inbounds nuw %struct.private_data, ptr %117, i32 0, i32 10
  %119 = load i64, ptr %118, align 8, !tbaa !39
  %120 = load ptr, ptr %8, align 8, !tbaa !15
  %121 = getelementptr inbounds nuw %struct.private_data, ptr %120, i32 0, i32 6
  %122 = load i64, ptr %121, align 8, !tbaa !36
  %123 = icmp uge i64 %119, %122
  br i1 %123, label %132, label %124

124:                                              ; preds = %116
  %125 = load ptr, ptr %8, align 8, !tbaa !15
  %126 = getelementptr inbounds nuw %struct.private_data, ptr %125, i32 0, i32 11
  %127 = load i64, ptr %126, align 8, !tbaa !40
  %128 = load ptr, ptr %8, align 8, !tbaa !15
  %129 = getelementptr inbounds nuw %struct.private_data, ptr %128, i32 0, i32 8
  %130 = load i64, ptr %129, align 8, !tbaa !38
  %131 = icmp uge i64 %127, %130
  br i1 %131, label %132, label %135

132:                                              ; preds = %124, %116
  %133 = load ptr, ptr %8, align 8, !tbaa !15
  %134 = getelementptr inbounds nuw %struct.private_data, ptr %133, i32 0, i32 3
  store i32 1, ptr %134, align 4, !tbaa !58
  br label %135

135:                                              ; preds = %132, %124
  br label %136

136:                                              ; preds = %135, %85
  %137 = load ptr, ptr %8, align 8, !tbaa !15
  %138 = getelementptr inbounds nuw %struct.private_data, ptr %137, i32 0, i32 14
  %139 = getelementptr inbounds nuw %struct.ZSTD_outBuffer_s, ptr %138, i32 0, i32 2
  %140 = load i64, ptr %139, align 8, !tbaa !51
  %141 = load ptr, ptr %8, align 8, !tbaa !15
  %142 = getelementptr inbounds nuw %struct.private_data, ptr %141, i32 0, i32 14
  %143 = getelementptr inbounds nuw %struct.ZSTD_outBuffer_s, ptr %142, i32 0, i32 1
  %144 = load i64, ptr %143, align 8, !tbaa !50
  %145 = icmp eq i64 %140, %144
  br i1 %145, label %155, label %146

146:                                              ; preds = %136
  %147 = load i32, ptr %9, align 4, !tbaa !13
  %148 = icmp ne i32 %147, 0
  br i1 %148, label %149, label %175

149:                                              ; preds = %146
  %150 = load ptr, ptr %8, align 8, !tbaa !15
  %151 = getelementptr inbounds nuw %struct.private_data, ptr %150, i32 0, i32 14
  %152 = getelementptr inbounds nuw %struct.ZSTD_outBuffer_s, ptr %151, i32 0, i32 2
  %153 = load i64, ptr %152, align 8, !tbaa !51
  %154 = icmp ugt i64 %153, 0
  br i1 %154, label %155, label %175

155:                                              ; preds = %149, %136
  %156 = load ptr, ptr %7, align 8, !tbaa !11
  %157 = getelementptr inbounds nuw %struct.archive_write_filter, ptr %156, i32 0, i32 2
  %158 = load ptr, ptr %157, align 8, !tbaa !69
  %159 = load ptr, ptr %8, align 8, !tbaa !15
  %160 = getelementptr inbounds nuw %struct.private_data, ptr %159, i32 0, i32 14
  %161 = getelementptr inbounds nuw %struct.ZSTD_outBuffer_s, ptr %160, i32 0, i32 0
  %162 = load ptr, ptr %161, align 8, !tbaa !42
  %163 = load ptr, ptr %8, align 8, !tbaa !15
  %164 = getelementptr inbounds nuw %struct.private_data, ptr %163, i32 0, i32 14
  %165 = getelementptr inbounds nuw %struct.ZSTD_outBuffer_s, ptr %164, i32 0, i32 2
  %166 = load i64, ptr %165, align 8, !tbaa !51
  %167 = call i32 @__archive_write_filter(ptr noundef %158, ptr noundef %162, i64 noundef %166)
  store i32 %167, ptr %16, align 4, !tbaa !13
  %168 = load i32, ptr %16, align 4, !tbaa !13
  %169 = icmp ne i32 %168, 0
  br i1 %169, label %170, label %171

170:                                              ; preds = %155
  br label %182

171:                                              ; preds = %155
  %172 = load ptr, ptr %8, align 8, !tbaa !15
  %173 = getelementptr inbounds nuw %struct.private_data, ptr %172, i32 0, i32 14
  %174 = getelementptr inbounds nuw %struct.ZSTD_outBuffer_s, ptr %173, i32 0, i32 2
  store i64 0, ptr %174, align 8, !tbaa !51
  br label %175

175:                                              ; preds = %171, %149, %146
  br label %23

176:                                              ; preds = %62, %50
  %177 = load ptr, ptr %7, align 8, !tbaa !11
  %178 = getelementptr inbounds nuw %struct.archive_write_filter, ptr %177, i32 0, i32 1
  %179 = load ptr, ptr %178, align 8, !tbaa !44
  %180 = load i64, ptr %15, align 8, !tbaa !43
  %181 = call ptr @ZSTD_getErrorName(i64 noundef %180)
  call void (ptr, i32, ptr, ...) @archive_set_error(ptr noundef %179, i32 noundef -1, ptr noundef @.str.16, ptr noundef %181)
  br label %182

182:                                              ; preds = %176, %170
  store i32 -30, ptr %6, align 4
  store i32 1, ptr %17, align 4
  br label %183

183:                                              ; preds = %182, %39
  call void @llvm.lifetime.end.p0(i64 4, ptr %16) #8
  call void @llvm.lifetime.end.p0(i64 8, ptr %15) #8
  call void @llvm.lifetime.end.p0(i64 8, ptr %14) #8
  call void @llvm.lifetime.end.p0(i64 8, ptr %13) #8
  call void @llvm.lifetime.end.p0(i64 24, ptr %12) #8
  %184 = load i32, ptr %6, align 4
  ret i32 %184
}