; Function Attrs: nounwind uwtable
define internal fastcc range(i32 -30, 1) i32 @drive_compressor(ptr noundef readonly captures(none) %0, ptr noundef %1, i32 noundef range(i32 0, 2) %2, ptr noundef %3, i64 noundef %4) unnamed_addr #0 {
  %6 = alloca %struct.ZSTD_inBuffer_s, align 8
  call void @llvm.lifetime.start.p0(i64 24, ptr nonnull %6) #10
  store ptr %3, ptr %6, align 8, !tbaa !50
  %7 = getelementptr inbounds nuw i8, ptr %6, i64 8
  store i64 %4, ptr %7, align 8, !tbaa !52
  %8 = getelementptr inbounds nuw i8, ptr %6, i64 16
  store i64 0, ptr %8, align 8, !tbaa !53
  %9 = getelementptr inbounds nuw i8, ptr %1, i64 96
  %10 = getelementptr inbounds nuw i8, ptr %1, i64 112
  %11 = getelementptr inbounds nuw i8, ptr %1, i64 12
  %12 = getelementptr inbounds nuw i8, ptr %1, i64 88
  %13 = getelementptr inbounds nuw i8, ptr %1, i64 56
  %14 = getelementptr inbounds nuw i8, ptr %1, i64 64
  %15 = getelementptr inbounds nuw i8, ptr %1, i64 72
  %16 = getelementptr inbounds nuw i8, ptr %1, i64 80
  %17 = getelementptr inbounds nuw i8, ptr %1, i64 32
  %18 = getelementptr inbounds nuw i8, ptr %1, i64 48
  %19 = getelementptr inbounds nuw i8, ptr %1, i64 104
  %.not46 = icmp eq i32 %2, 0
  %20 = getelementptr inbounds nuw i8, ptr %0, i64 16
  %.pre50 = load i64, ptr %10, align 8, !tbaa !36
  br label %21

21:                                               ; preds = %.backedge, %5
  %22 = phi i64 [ %.pre50, %5 ], [ %.be, %.backedge ]
  %23 = phi i64 [ 0, %5 ], [ %.be52, %.backedge ]
  %24 = load i32, ptr %11, align 4, !tbaa !45
  switch i32 %24, label %44 [
    i32 0, label %25
    i32 1, label %32
    i32 2, label %39
  ]

25:                                               ; preds = %21
  %26 = load i64, ptr %7, align 8, !tbaa !52
  %27 = icmp eq i64 %23, %26
  br i1 %27, label %.loopexit, label %28

28:                                               ; preds = %25
  %29 = load ptr, ptr %12, align 8, !tbaa !27
  %30 = call i64 @ZSTD_compressStream(ptr noundef %29, ptr noundef nonnull %9, ptr noundef nonnull %6) #10
  %31 = call i32 @ZSTD_isError(i64 noundef %30) #10
  %.not43 = icmp eq i32 %31, 0
  br i1 %.not43, label %44, label %70

32:                                               ; preds = %21
  %33 = load ptr, ptr %12, align 8, !tbaa !27
  %34 = call i64 @ZSTD_endStream(ptr noundef %33, ptr noundef nonnull %9) #10
  %35 = call i32 @ZSTD_isError(i64 noundef %34) #10
  %.not = icmp eq i32 %35, 0
  br i1 %.not, label %36, label %70

36:                                               ; preds = %32
  %37 = icmp eq i64 %34, 0
  br i1 %37, label %38, label %44

38:                                               ; preds = %36
  store i32 2, ptr %11, align 4, !tbaa !45
  br label %44

39:                                               ; preds = %21
  %40 = load ptr, ptr %12, align 8, !tbaa !27
  %41 = call i64 @ZSTD_CCtx_reset(ptr noundef %40, i32 noundef 1) #10
  %42 = load i64, ptr %13, align 8, !tbaa !54
  %43 = add i64 %42, 1
  store i64 %43, ptr %13, align 8, !tbaa !54
  store i32 0, ptr %11, align 4, !tbaa !45
  call void @llvm.memset.p0.i64(ptr noundef nonnull align 8 dereferenceable(16) %14, i8 0, i64 16, i1 false)
  br label %44

44:                                               ; preds = %36, %38, %28, %39, %21
  %45 = load i64, ptr %8, align 8, !tbaa !53
  %46 = sub i64 %45, %23
  %47 = load i64, ptr %16, align 8, !tbaa !55
  %48 = add i64 %47, %46
  store i64 %48, ptr %16, align 8, !tbaa !55
  %49 = load i64, ptr %14, align 8, !tbaa !46
  %50 = add i64 %49, %46
  store i64 %50, ptr %14, align 8, !tbaa !46
  %51 = load i64, ptr %10, align 8, !tbaa !36
  %52 = sub i64 %51, %22
  %53 = load i64, ptr %15, align 8, !tbaa !48
  %54 = add i64 %53, %52
  store i64 %54, ptr %15, align 8, !tbaa !48
  %55 = load i32, ptr %11, align 4, !tbaa !45
  %56 = icmp eq i32 %55, 0
  br i1 %56, label %57, label %62

57:                                               ; preds = %44
  %58 = load i64, ptr %17, align 8, !tbaa !25
  %.not44 = icmp ult i64 %50, %58
  br i1 %.not44, label %59, label %61

59:                                               ; preds = %57
  %60 = load i64, ptr %18, align 8, !tbaa !26
  %.not45 = icmp ult i64 %54, %60
  br i1 %.not45, label %62, label %61

61:                                               ; preds = %59, %57
  store i32 1, ptr %11, align 4, !tbaa !45
  br label %62

62:                                               ; preds = %59, %61, %44
  %63 = load i64, ptr %19, align 8, !tbaa !35
  %64 = icmp ne i64 %51, %63
  %.not47 = icmp eq i64 %51, 0
  %or.cond = or i1 %.not46, %.not47
  %or.cond49 = and i1 %64, %or.cond
  br i1 %or.cond49, label %.backedge, label %65

.backedge:                                        ; preds = %62, %69
  %.be = phi i64 [ %51, %62 ], [ 0, %69 ]
  %.be52 = phi i64 [ %45, %62 ], [ %.pre.pre, %69 ]
  br label %21

65:                                               ; preds = %62
  %66 = load ptr, ptr %20, align 8, !tbaa !56
  %67 = load ptr, ptr %9, align 8, !tbaa !28
  %68 = call i32 @__archive_write_filter(ptr noundef %66, ptr noundef %67, i64 noundef %51) #10
  %.not48 = icmp eq i32 %68, 0
  br i1 %.not48, label %69, label %.loopexit

69:                                               ; preds = %65
  store i64 0, ptr %10, align 8, !tbaa !36
  %.pre.pre = load i64, ptr %8, align 8, !tbaa !53
  br label %.backedge

70:                                               ; preds = %32, %28
  %.041 = phi i64 [ %34, %32 ], [ %30, %28 ]
  %71 = getelementptr inbounds nuw i8, ptr %0, i64 8
  %72 = load ptr, ptr %71, align 8, !tbaa !29
  %73 = call ptr @ZSTD_getErrorName(i64 noundef %.041) #10
  call void (ptr, i32, ptr, ...) @archive_set_error(ptr noundef %72, i32 noundef -1, ptr noundef nonnull @.str.16, ptr noundef %73) #10
  br label %.loopexit

.loopexit:                                        ; preds = %65, %25, %70
  %.0 = phi i32 [ -30, %70 ], [ -30, %65 ], [ 0, %25 ]
  call void @llvm.lifetime.end.p0(i64 24, ptr nonnull %6) #10
  ret i32 %.0
}